; Function Attrs: mustprogress uwtable
define noundef ptr @_ZNK6icu_7515ISO8601Calendar5cloneEv(ptr noundef nonnull align 8 dereferenceable(654) %this) unnamed_addr #1 align 2 personality ptr @__gxx_personality_v0 {
entry:
  %call = tail call noundef ptr @_ZN6icu_757UMemorynwEm(i64 noundef 656) #5
  %new.isnull = icmp eq ptr %call, null
  br i1 %new.isnull, label %new.cont, label %new.notnull

new.notnull:                                      ; preds = %entry
  invoke void @_ZN6icu_7517GregorianCalendarC2ERKS0_(ptr noundef nonnull align 8 dereferenceable(654) %call, ptr noundef nonnull align 8 dereferenceable(654) %this)
          to label %_ZN6icu_7515ISO8601CalendarC2ERKS0_.exit unwind label %lpad

_ZN6icu_7515ISO8601CalendarC2ERKS0_.exit:         ; preds = %new.notnull
  store ptr getelementptr inbounds ({ [61 x ptr] }, ptr @_ZTVN6icu_7515ISO8601CalendarE, i64 0, i32 0, i64 2), ptr %call, align 8
  br label %new.cont

new.cont:                                         ; preds = %_ZN6icu_7515ISO8601CalendarC2ERKS0_.exit, %entry
  ret ptr %call

lpad:                                             ; preds = %new.notnull
  %0 = landingpad { ptr, i32 }
          cleanup
  tail call void @_ZN6icu_757UMemorydlEPv(ptr noundef nonnull %call) #5
  resume { ptr, i32 } %0
}